target datalayout = "e-m:e-p270:32:32-p271:32:32-p272:64:64-i64:64-i128:128-f80:128-n8:16:32:64-S128"
target triple = "x86_64-pc-linux-gnu"

@quake3_handle = internal global ptr null, align 8
@gbl_quake3_server_port = internal global i32 27960, align 4
@gbl_quake3_master_port = internal global i32 27950, align 4
@proto_reg_handoff_quake3.initialized = internal global i8 0, align 1
@proto_reg_handoff_quake3.server_port = internal global i32 0, align 4
@proto_reg_handoff_quake3.master_port = internal global i32 0, align 4
@.str.41 = private unnamed_addr constant [9 x i8] c"udp.port\00", align 1

; Function Attrs: null_pointer_is_valid sspstrong uwtable
define hidden void @proto_reg_handoff_quake3() #0 {
  %1 = alloca i32, align 4
  call void @llvm.lifetime.start.p0(i64 4, ptr %1) #4
  %2 = load i8, ptr @proto_reg_handoff_quake3.initialized, align 1, !range !6, !noundef !7
  %3 = trunc i8 %2 to i1
  br i1 %3, label %5, label %4

4:                                                ; preds = %0
  store i8 1, ptr @proto_reg_handoff_quake3.initialized, align 1
  br label %30

5:                                                ; preds = %0
  store i32 0, ptr %1, align 4
  br label %6

6:                                                ; preds = %14, %5
  %7 = load i32, ptr %1, align 4
  %8 = icmp slt i32 %7, 4
  br i1 %8, label %9, label %17

9:                                                ; preds = %6
  %10 = load i32, ptr @proto_reg_handoff_quake3.server_port, align 4
  %11 = load i32, ptr %1, align 4
  %12 = add i32 %10, %11
  %13 = load ptr, ptr @quake3_handle, align 8
  call void @dissector_delete_uint(ptr noundef @.str.41, i32 noundef %12, ptr noundef %13)
  br label %14

14:                                               ; preds = %9
  %15 = load i32, ptr %1, align 4
  %16 = add i32 %15, 1
  store i32 %16, ptr %1, align 4
  br label %6, !llvm.loop !8

17:                                               ; preds = %6
  store i32 0, ptr %1, align 4
  br label %18

18:                                               ; preds = %26, %17
  %19 = load i32, ptr %1, align 4
  %20 = icmp slt i32 %19, 4
  br i1 %20, label %21, label %29

21:                                               ; preds = %18
  %22 = load i32, ptr @proto_reg_handoff_quake3.master_port, align 4
  %23 = load i32, ptr %1, align 4
  %24 = add i32 %22, %23
  %25 = load ptr, ptr @quake3_handle, align 8
  call void @dissector_delete_uint(ptr noundef @.str.41, i32 noundef %24, ptr noundef %25)
  br label %26

26:                                               ; preds = %21
  %27 = load i32, ptr %1, align 4
  %28 = add i32 %27, 1
  store i32 %28, ptr %1, align 4
  br label %18, !llvm.loop !10

29:                                               ; preds = %18
  br label %30

30:                                               ; preds = %29, %4
  %31 = load i32, ptr @gbl_quake3_server_port, align 4
  store i32 %31, ptr @proto_reg_handoff_quake3.server_port, align 4
  %32 = load i32, ptr @gbl_quake3_master_port, align 4
  store i32 %32, ptr @proto_reg_handoff_quake3.master_port, align 4
  store i32 0, ptr %1, align 4
  br label %33

33:                                               ; preds = %41, %30
  %34 = load i32, ptr %1, align 4
  %35 = icmp slt i32 %34, 4
  br i1 %35, label %36, label %44

36:                                               ; preds = %33
  %37 = load i32, ptr @gbl_quake3_server_port, align 4
  %38 = load i32, ptr %1, align 4
  %39 = add i32 %37, %38
  %40 = load ptr, ptr @quake3_handle, align 8
  call void @dissector_add_uint(ptr noundef @.str.41, i32 noundef %39, ptr noundef %40)
  br label %41

41:                                               ; preds = %36
  %42 = load i32, ptr %1, align 4
  %43 = add i32 %42, 1
  store i32 %43, ptr %1, align 4
  br label %33, !llvm.loop !11

44:                                               ; preds = %33
  store i32 0, ptr %1, align 4
  br label %45

45:                                               ; preds = %53, %44
  %46 = load i32, ptr %1, align 4
  %47 = icmp slt i32 %46, 4
  br i1 %47, label %48, label %56

48:                                               ; preds = %45
  %49 = load i32, ptr @gbl_quake3_master_port, align 4
  %50 = load i32, ptr %1, align 4
  %51 = add i32 %49, %50
  %52 = load ptr, ptr @quake3_handle, align 8
  call void @dissector_add_uint(ptr noundef @.str.41, i32 noundef %51, ptr noundef %52)
  br label %53

53:                                               ; preds = %48
  %54 = load i32, ptr %1, align 4
  %55 = add i32 %54, 1
  store i32 %55, ptr %1, align 4
  br label %45, !llvm.loop !12

56:                                               ; preds = %45
  call void @llvm.lifetime.end.p0(i64 4, ptr %1) #4
  ret void
}